target datalayout = "e-m:e-p270:32:32-p271:32:32-p272:64:64-i64:64-i128:128-f80:128-n8:16:32:64-S128"
target triple = "x86_64-unknown-linux-gnu"

%struct.PCIDevice = type { %struct.DeviceState, i8, i8, ptr, ptr, ptr, ptr, ptr, i32, %struct.PCIReqIDCache, [64 x i8], [7 x %struct.PCIIORegion], %struct.AddressSpace, %struct.MemoryRegion, %struct.MemoryRegion, ptr, ptr, [3 x ptr], i8, i8, i32, i8, i32, ptr, ptr, ptr, ptr, ptr, ptr, %struct.MemoryRegion, %struct.MemoryRegion, %struct.MemoryRegion, ptr, i8, i32, i8, %struct.PCIExpressDevice, ptr, ptr, i32, i8, %struct.MemoryRegion, i32, ptr, ptr, ptr, ptr, ptr, i32 }
%struct.DeviceState = type { %struct.Object, ptr, ptr, i8, i8, i64, ptr, i32, i8, ptr, %struct.NamedGPIOListHead, %struct.NamedClockListHead, %struct.BusStateHead, i32, i32, i32, %struct.ResettableState, ptr, %struct.MemReentrancyGuard }
%struct.Object = type { ptr, ptr, ptr, i32, ptr }
%struct.NamedGPIOListHead = type { ptr }
%struct.NamedClockListHead = type { ptr }
%struct.BusStateHead = type { ptr }
%struct.ResettableState = type { i32, i8, i8 }
%struct.MemReentrancyGuard = type { i8 }
%struct.PCIReqIDCache = type { ptr, i32 }
%struct.PCIIORegion = type { i64, i64, i8, ptr, ptr }
%struct.AddressSpace = type { %struct.rcu_head, ptr, ptr, ptr, i32, i32, ptr, %union.anon, %union.anon.0 }
%struct.rcu_head = type { ptr, ptr }
%union.anon = type { %struct.QTailQLink }
%struct.QTailQLink = type { ptr, ptr }
%union.anon.0 = type { %struct.QTailQLink }
%struct.PCIExpressDevice = type { i8, i8, i8, i16, %struct.PCIEAERLog, i16, i16, i16, %struct.PCIESriovPF, %struct.PCIESriovVF }
%struct.PCIEAERLog = type { i16, i16, ptr }
%struct.PCIESriovPF = type { i16, [7 x i8], ptr, ptr }
%struct.PCIESriovVF = type { ptr, i16 }
%struct.MemoryRegion = type { %struct.Object, i8, i8, i8, i8, i8, i8, i8, i8, i8, i8, ptr, ptr, ptr, ptr, ptr, ptr, i32, i128, i64, ptr, i64, i8, i8, i8, i8, i8, ptr, i64, i32, %union.anon.1, %union.anon.2, %union.anon.3, ptr, i32, ptr, ptr, i8 }
%union.anon.1 = type { %struct.QTailQLink }
%union.anon.2 = type { %struct.QTailQLink }
%union.anon.3 = type { %struct.QTailQLink }
%struct.IVShmemState = type { %struct.PCIDevice, i32, ptr, %struct.CharBackend, i32, i32, i32, %struct.MemoryRegion, ptr, %struct.MemoryRegion, ptr, i32, i32, ptr, i64, i32, i32, ptr }
%struct.CharBackend = type { ptr, ptr, ptr, ptr, ptr, ptr, i32, i32 }

@.str = private unnamed_addr constant [15 x i8] c"ivshmem-common\00", align 1
@.str.4 = private unnamed_addr constant [7 x i8] c"device\00", align 1
@.str.5 = private unnamed_addr constant [101 x i8] c"/home/dtcxzyw/WorkSpace/Projects/compilers/llvm-opt-benchmark/bench/qemu/qemu/include/hw/qdev-core.h\00", align 1
@.str.7 = private unnamed_addr constant [26 x i8] c"../qemu/hw/misc/ivshmem.c\00", align 1
@__func__.IVSHMEM_COMMON = private unnamed_addr constant [15 x i8] c"IVSHMEM_COMMON\00", align 1
@__func__.DEVICE = private unnamed_addr constant [7 x i8] c"DEVICE\00", align 1
@.str.32 = private unnamed_addr constant [34 x i8] c"Failed to munmap shared memory %s\00", align 1

; Function Attrs: nounwind sspstrong uwtable
define internal i32 @ivshmem_has_feature(ptr noundef %ivs, i32 noundef %feature) #0 {
entry:
  %ivs.addr = alloca ptr, align 8
  %feature.addr = alloca i32, align 4
  store ptr %ivs, ptr %ivs.addr, align 8
  store i32 %feature, ptr %feature.addr, align 4
  %0 = load ptr, ptr %ivs.addr, align 8
  %features = getelementptr inbounds %struct.IVShmemState, ptr %0, i32 0, i32 1
  %1 = load i32, ptr %features, align 16
  %2 = load i32, ptr %feature.addr, align 4
  %shl = shl i32 1, %2
  %and = and i32 %1, %shl
  ret i32 %and
}

; Function Attrs: nounwind sspstrong uwtable
define internal ptr @DEVICE(ptr noundef %obj) #0 {
entry:
  %obj.addr = alloca ptr, align 8
  store ptr %obj, ptr %obj.addr, align 8
  %0 = load ptr, ptr %obj.addr, align 8
  %call = call ptr @object_dynamic_cast_assert(ptr noundef %0, ptr noundef @.str.4, ptr noundef @.str.5, i32 noundef 77, ptr noundef @__func__.DEVICE)
  ret ptr %call
}

; Function Attrs: nounwind sspstrong uwtable
define internal ptr @IVSHMEM_COMMON(ptr noundef %obj) #0 {
entry:
  %obj.addr = alloca ptr, align 8
  store ptr %obj, ptr %obj.addr, align 8
  %0 = load ptr, ptr %obj.addr, align 8
  %call = call ptr @object_dynamic_cast_assert(ptr noundef %0, ptr noundef @.str, ptr noundef @.str.7, i32 noundef 63, ptr noundef @__func__.IVSHMEM_COMMON)
  ret ptr %call
}

; Function Attrs: nounwind sspstrong uwtable
define internal void @ivshmem_exit(ptr noundef %dev) #0 {
entry:
  %dev.addr = alloca ptr, align 8
  %s = alloca ptr, align 8
  %i = alloca i32, align 4
  %addr = alloca ptr, align 8
  %fd = alloca i32, align 4
  store ptr %dev, ptr %dev.addr, align 8
  %0 = load ptr, ptr %dev.addr, align 8
  %call = call ptr @IVSHMEM_COMMON(ptr noundef %0)
  store ptr %call, ptr %s, align 8
  %1 = load ptr, ptr %s, align 8
  %migration_blocker = getelementptr inbounds %struct.IVShmemState, ptr %1, i32 0, i32 17
  call void @migrate_del_blocker(ptr noundef %migration_blocker)
  %2 = load ptr, ptr %s, align 8
  %ivshmem_bar2 = getelementptr inbounds %struct.IVShmemState, ptr %2, i32 0, i32 8
  %3 = load ptr, ptr %ivshmem_bar2, align 16
  %call1 = call zeroext i1 @memory_region_is_mapped(ptr noundef %3)
  br i1 %call1, label %if.then, label %if.end19

if.then:                                          ; preds = %entry
  %4 = load ptr, ptr %s, align 8
  %hostmem = getelementptr inbounds %struct.IVShmemState, ptr %4, i32 0, i32 2
  %5 = load ptr, ptr %hostmem, align 8
  %tobool = icmp ne ptr %5, null
  br i1 %tobool, label %if.end16, label %if.then2

if.then2:                                         ; preds = %if.then
  %6 = load ptr, ptr %s, align 8
  %ivshmem_bar23 = getelementptr inbounds %struct.IVShmemState, ptr %6, i32 0, i32 8
  %7 = load ptr, ptr %ivshmem_bar23, align 16
  %call4 = call ptr @memory_region_get_ram_ptr(ptr noundef %7)
  store ptr %call4, ptr %addr, align 8
  %8 = load ptr, ptr %addr, align 8
  %9 = load ptr, ptr %s, align 8
  %ivshmem_bar25 = getelementptr inbounds %struct.IVShmemState, ptr %9, i32 0, i32 8
  %10 = load ptr, ptr %ivshmem_bar25, align 16
  %call6 = call i64 @memory_region_size(ptr noundef %10)
  %cmp = icmp eq i64 %call6, -1
  %conv = zext i1 %cmp to i32
  %conv7 = sext i32 %conv to i64
  %call8 = call i32 @munmap(ptr noundef %8, i64 noundef %conv7) #8
  %tobool9 = icmp ne i32 %call8, 0
  br i1 %tobool9, label %if.then10, label %if.end

if.then10:                                        ; preds = %if.then2
  %call11 = call ptr @__errno_location() #9
  %11 = load i32, ptr %call11, align 4
  %call12 = call ptr @strerror(i32 noundef %11) #8
  call void (ptr, ...) @error_report(ptr noundef @.str.32, ptr noundef %call12)
  br label %if.end

if.end:                                           ; preds = %if.then10, %if.then2
  %12 = load ptr, ptr %s, align 8
  %ivshmem_bar213 = getelementptr inbounds %struct.IVShmemState, ptr %12, i32 0, i32 8
  %13 = load ptr, ptr %ivshmem_bar213, align 16
  %call14 = call i32 @memory_region_get_fd(ptr noundef %13)
  store i32 %call14, ptr %fd, align 4
  %14 = load i32, ptr %fd, align 4
  %call15 = call i32 @close(i32 noundef %14)
  br label %if.end16

if.end16:                                         ; preds = %if.end, %if.then
  %15 = load ptr, ptr %s, align 8
  %ivshmem_bar217 = getelementptr inbounds %struct.IVShmemState, ptr %15, i32 0, i32 8
  %16 = load ptr, ptr %ivshmem_bar217, align 16
  %17 = load ptr, ptr %dev.addr, align 8
  %call18 = call ptr @DEVICE(ptr noundef %17)
  call void @vmstate_unregister_ram(ptr noundef %16, ptr noundef %call18)
  br label %if.end19

if.end19:                                         ; preds = %if.end16, %entry
  %18 = load ptr, ptr %s, align 8
  %hostmem20 = getelementptr inbounds %struct.IVShmemState, ptr %18, i32 0, i32 2
  %19 = load ptr, ptr %hostmem20, align 8
  %tobool21 = icmp ne ptr %19, null
  br i1 %tobool21, label %if.then22, label %if.end24

if.then22:                                        ; preds = %if.end19
  %20 = load ptr, ptr %s, align 8
  %hostmem23 = getelementptr inbounds %struct.IVShmemState, ptr %20, i32 0, i32 2
  %21 = load ptr, ptr %hostmem23, align 8
  call void @host_memory_backend_set_mapped(ptr noundef %21, i1 noundef zeroext false)
  br label %if.end24

if.end24:                                         ; preds = %if.then22, %if.end19
  %22 = load ptr, ptr %s, align 8
  %peers = getelementptr inbounds %struct.IVShmemState, ptr %22, i32 0, i32 10
  %23 = load ptr, ptr %peers, align 16
  %tobool25 = icmp ne ptr %23, null
  br i1 %tobool25, label %if.then26, label %if.end30

if.then26:                                        ; preds = %if.end24
  store i32 0, ptr %i, align 4
  br label %for.cond

for.cond:                                         ; preds = %for.inc, %if.then26
  %24 = load i32, ptr %i, align 4
  %25 = load ptr, ptr %s, align 8
  %nb_peers = getelementptr inbounds %struct.IVShmemState, ptr %25, i32 0, i32 11
  %26 = load i32, ptr %nb_peers, align 8
  %cmp27 = icmp slt i32 %24, %26
  br i1 %cmp27, label %for.body, label %for.end

for.body:                                         ; preds = %for.cond
  %27 = load ptr, ptr %s, align 8
  %28 = load i32, ptr %i, align 4
  call void @close_peer_eventfds(ptr noundef %27, i32 noundef %28)
  br label %for.inc

for.inc:                                          ; preds = %for.body
  %29 = load i32, ptr %i, align 4
  %inc = add i32 %29, 1
  store i32 %inc, ptr %i, align 4
  br label %for.cond, !llvm.loop !5

for.end:                                          ; preds = %for.cond
  %30 = load ptr, ptr %s, align 8
  %peers29 = getelementptr inbounds %struct.IVShmemState, ptr %30, i32 0, i32 10
  %31 = load ptr, ptr %peers29, align 16
  call void @g_free(ptr noundef %31)
  br label %if.end30

if.end30:                                         ; preds = %for.end, %if.end24
  %32 = load ptr, ptr %s, align 8
  %call31 = call i32 @ivshmem_has_feature(ptr noundef %32, i32 noundef 1)
  %tobool32 = icmp ne i32 %call31, 0
  br i1 %tobool32, label %if.then33, label %if.end34

if.then33:                                        ; preds = %if.end30
  %33 = load ptr, ptr %dev.addr, align 8
  call void @msix_uninit_exclusive_bar(ptr noundef %33)
  br label %if.end34

if.end34:                                         ; preds = %if.then33, %if.end30
  %34 = load ptr, ptr %s, align 8
  %msi_vectors = getelementptr inbounds %struct.IVShmemState, ptr %34, i32 0, i32 13
  %35 = load ptr, ptr %msi_vectors, align 16
  call void @g_free(ptr noundef %35)
  ret void
}