; Function Attrs: nounwind sspstrong uwtable
define internal void @ivshmem_exit(ptr noundef %dev) #0 {
entry:
  %call.i = tail call ptr @object_dynamic_cast_assert(ptr noundef %dev, ptr noundef nonnull @.str, ptr noundef nonnull @.str.7, i32 noundef 63, ptr noundef nonnull @__func__.IVSHMEM_COMMON) #11
  %migration_blocker = getelementptr inbounds nuw i8, ptr %call.i, i64 3304
  tail call void @migrate_del_blocker(ptr noundef nonnull %migration_blocker) #11
  %ivshmem_bar2 = getelementptr inbounds nuw i8, ptr %call.i, i64 2976
  %0 = load ptr, ptr %ivshmem_bar2, align 16
  %call1 = tail call zeroext i1 @memory_region_is_mapped(ptr noundef %0) #11
  br i1 %call1, label %if.then, label %if.end19

if.then:                                          ; preds = %entry
  %hostmem = getelementptr inbounds nuw i8, ptr %call.i, i64 2616
  %1 = load ptr, ptr %hostmem, align 8
  %tobool.not = icmp eq ptr %1, null
  br i1 %tobool.not, label %if.then2, label %if.end16

if.then2:                                         ; preds = %if.then
  %2 = load ptr, ptr %ivshmem_bar2, align 16
  %call4 = tail call ptr @memory_region_get_ram_ptr(ptr noundef %2) #11
  %3 = load ptr, ptr %ivshmem_bar2, align 16
  %call6 = tail call i64 @memory_region_size(ptr noundef %3) #11
  %cmp = icmp eq i64 %call6, -1
  %conv7 = zext i1 %cmp to i64
  %call8 = tail call i32 @munmap(ptr noundef %call4, i64 noundef %conv7) #11
  %tobool9.not = icmp eq i32 %call8, 0
  br i1 %tobool9.not, label %if.end, label %if.then10

if.then10:                                        ; preds = %if.then2
  %call11 = tail call ptr @__errno_location() #14
  %4 = load i32, ptr %call11, align 4
  %call12 = tail call ptr @strerror(i32 noundef %4) #11
  tail call void (ptr, ...) @error_report(ptr noundef nonnull @.str.32, ptr noundef %call12) #11
  br label %if.end

if.end:                                           ; preds = %if.then10, %if.then2
  %5 = load ptr, ptr %ivshmem_bar2, align 16
  %call14 = tail call i32 @memory_region_get_fd(ptr noundef %5) #11
  %call15 = tail call i32 @close(i32 noundef %call14) #11
  br label %if.end16

if.end16:                                         ; preds = %if.end, %if.then
  %6 = load ptr, ptr %ivshmem_bar2, align 16
  %call.i19 = tail call ptr @object_dynamic_cast_assert(ptr noundef %dev, ptr noundef nonnull @.str.4, ptr noundef nonnull @.str.5, i32 noundef 77, ptr noundef nonnull @__func__.DEVICE) #11
  tail call void @vmstate_unregister_ram(ptr noundef %6, ptr noundef %call.i19) #11
  br label %if.end19

if.end19:                                         ; preds = %if.end16, %entry
  %hostmem20 = getelementptr inbounds nuw i8, ptr %call.i, i64 2616
  %7 = load ptr, ptr %hostmem20, align 8
  %tobool21.not = icmp eq ptr %7, null
  br i1 %tobool21.not, label %if.end24, label %if.then22

if.then22:                                        ; preds = %if.end19
  tail call void @host_memory_backend_set_mapped(ptr noundef nonnull %7, i1 noundef zeroext false) #11
  br label %if.end24

if.end24:                                         ; preds = %if.then22, %if.end19
  %peers = getelementptr inbounds nuw i8, ptr %call.i, i64 3264
  %8 = load ptr, ptr %peers, align 16
  %tobool25.not = icmp eq ptr %8, null
  br i1 %tobool25.not, label %if.end30, label %for.cond.preheader

for.cond.preheader:                               ; preds = %if.end24
  %nb_peers = getelementptr inbounds nuw i8, ptr %call.i, i64 3272
  %9 = load i32, ptr %nb_peers, align 8
  %cmp2720 = icmp sgt i32 %9, 0
  br i1 %cmp2720, label %for.body, label %for.end

for.body:                                         ; preds = %for.cond.preheader, %for.body
  %i.021 = phi i32 [ %inc, %for.body ], [ 0, %for.cond.preheader ]
  tail call fastcc void @close_peer_eventfds(ptr noundef nonnull %call.i, i32 noundef %i.021)
  %inc = add nuw nsw i32 %i.021, 1
  %10 = load i32, ptr %nb_peers, align 8
  %cmp27 = icmp slt i32 %inc, %10
  br i1 %cmp27, label %for.body, label %for.end.loopexit, !llvm.loop !10

for.end.loopexit:                                 ; preds = %for.body
  %.pre = load ptr, ptr %peers, align 16
  br label %for.end

for.end:                                          ; preds = %for.end.loopexit, %for.cond.preheader
  %11 = phi ptr [ %.pre, %for.end.loopexit ], [ %8, %for.cond.preheader ]
  tail call void @g_free(ptr noundef %11) #11
  br label %if.end30

if.end30:                                         ; preds = %for.end, %if.end24
  %12 = getelementptr i8, ptr %call.i, i64 2608
  %call.val = load i32, ptr %12, align 16
  %and.i = and i32 %call.val, 2
  %tobool32.not = icmp eq i32 %and.i, 0
  br i1 %tobool32.not, label %if.end34, label %if.then33

if.then33:                                        ; preds = %if.end30
  tail call void @msix_uninit_exclusive_bar(ptr noundef %dev) #11
  br label %if.end34

if.end34:                                         ; preds = %if.then33, %if.end30
  %msi_vectors = getelementptr inbounds nuw i8, ptr %call.i, i64 3280
  %13 = load ptr, ptr %msi_vectors, align 16
  tail call void @g_free(ptr noundef %13) #11
  ret void
}